target datalayout = "e-m:e-p270:32:32-p271:32:32-p272:64:64-i64:64-i128:128-f80:128-n8:16:32:64-S128"
target triple = "x86_64-pc-linux-gnu"

%struct.field_info = type { ptr, i32, i32, i32, i32, i32, i32, ptr, ptr, ptr, i32, i32 }
%struct._GSList = type { ptr, ptr }

@.str.82 = private unnamed_addr constant [22 x i8] c"field length invalid!\00", align 1
@.str.113 = private unnamed_addr constant [5 x i8] c"%02x\00", align 1

; Function Attrs: null_pointer_is_valid sspstrong uwtable
define internal ptr @get_field_data(ptr noundef %0, ptr noundef %1) #0 {
  %3 = alloca ptr, align 8
  %4 = alloca ptr, align 8
  %5 = alloca ptr, align 8
  %6 = alloca ptr, align 8
  %7 = alloca ptr, align 8
  %8 = alloca i32, align 4
  %9 = alloca i32, align 4
  %10 = alloca ptr, align 8
  %11 = alloca i32, align 4
  store ptr %0, ptr %4, align 8
  store ptr %1, ptr %5, align 8
  call void @llvm.lifetime.start.p0(i64 8, ptr %6) #15
  call void @llvm.lifetime.start.p0(i64 8, ptr %7) #15
  call void @llvm.lifetime.start.p0(i64 4, ptr %8) #15
  call void @llvm.lifetime.start.p0(i64 4, ptr %9) #15
  call void @llvm.lifetime.start.p0(i64 8, ptr %10) #15
  %12 = load ptr, ptr %4, align 8
  store ptr %12, ptr %6, align 8
  br label %13

13:                                               ; preds = %53, %2
  %14 = load ptr, ptr %6, align 8
  %15 = icmp ne ptr %14, null
  br i1 %15, label %16, label %57

16:                                               ; preds = %13
  %17 = load ptr, ptr %6, align 8
  %18 = getelementptr inbounds nuw %struct._GSList, ptr %17, i32 0, i32 0
  %19 = load ptr, ptr %18, align 8
  store ptr %19, ptr %10, align 8
  %20 = load ptr, ptr %10, align 8
  %21 = call ptr @get_data_source_tvb(ptr noundef %20)
  store ptr %21, ptr %7, align 8
  %22 = load ptr, ptr %5, align 8
  %23 = getelementptr inbounds nuw %struct.field_info, ptr %22, i32 0, i32 8
  %24 = load ptr, ptr %23, align 8
  %25 = load ptr, ptr %7, align 8
  %26 = icmp eq ptr %24, %25
  br i1 %26, label %27, label %52

27:                                               ; preds = %16
  %28 = load ptr, ptr %7, align 8
  %29 = load ptr, ptr %5, align 8
  %30 = getelementptr inbounds nuw %struct.field_info, ptr %29, i32 0, i32 1
  %31 = load i32, ptr %30, align 8
  %32 = call i32 @tvb_captured_length_remaining(ptr noundef %28, i32 noundef %31)
  store i32 %32, ptr %9, align 4
  %33 = load i32, ptr %9, align 4
  %34 = icmp slt i32 %33, 0
  br i1 %34, label %35, label %36

35:                                               ; preds = %27
  store ptr null, ptr %3, align 8
  store i32 1, ptr %11, align 4
  br label %58

36:                                               ; preds = %27
  %37 = load ptr, ptr %5, align 8
  %38 = getelementptr inbounds nuw %struct.field_info, ptr %37, i32 0, i32 2
  %39 = load i32, ptr %38, align 4
  store i32 %39, ptr %8, align 4
  %40 = load i32, ptr %8, align 4
  %41 = load i32, ptr %9, align 4
  %42 = icmp sgt i32 %40, %41
  br i1 %42, label %43, label %45

43:                                               ; preds = %36
  %44 = load i32, ptr %9, align 4
  store i32 %44, ptr %8, align 4
  br label %45

45:                                               ; preds = %43, %36
  %46 = load ptr, ptr %7, align 8
  %47 = load ptr, ptr %5, align 8
  %48 = getelementptr inbounds nuw %struct.field_info, ptr %47, i32 0, i32 1
  %49 = load i32, ptr %48, align 8
  %50 = load i32, ptr %8, align 4
  %51 = call ptr @tvb_get_ptr(ptr noundef %46, i32 noundef %49, i32 noundef %50)
  store ptr %51, ptr %3, align 8
  store i32 1, ptr %11, align 4
  br label %58

52:                                               ; preds = %16
  br label %53

53:                                               ; preds = %52
  %54 = load ptr, ptr %6, align 8
  %55 = getelementptr inbounds nuw %struct._GSList, ptr %54, i32 0, i32 1
  %56 = load ptr, ptr %55, align 8
  store ptr %56, ptr %6, align 8
  br label %13, !llvm.loop !39

57:                                               ; preds = %13
  store ptr null, ptr %3, align 8
  store i32 1, ptr %11, align 4
  br label %58

58:                                               ; preds = %57, %45, %35
  call void @llvm.lifetime.end.p0(i64 8, ptr %10) #15
  call void @llvm.lifetime.end.p0(i64 4, ptr %9) #15
  call void @llvm.lifetime.end.p0(i64 4, ptr %8) #15
  call void @llvm.lifetime.end.p0(i64 8, ptr %7) #15
  call void @llvm.lifetime.end.p0(i64 8, ptr %6) #15
  %59 = load ptr, ptr %3, align 8
  ret ptr %59
}

; Function Attrs: null_pointer_is_valid sspstrong uwtable
define internal ptr @get_field_hex_value(ptr noundef %0, ptr noundef %1) #0 {
  %3 = alloca ptr, align 8
  %4 = alloca ptr, align 8
  %5 = alloca ptr, align 8
  %6 = alloca ptr, align 8
  %7 = alloca i32, align 4
  %8 = alloca i32, align 4
  %9 = alloca ptr, align 8
  %10 = alloca ptr, align 8
  %11 = alloca i32, align 4
  %12 = alloca i32, align 4
  store ptr %0, ptr %4, align 8
  store ptr %1, ptr %5, align 8
  call void @llvm.lifetime.start.p0(i64 8, ptr %6) #15
  %13 = load ptr, ptr %5, align 8
  %14 = getelementptr inbounds nuw %struct.field_info, ptr %13, i32 0, i32 8
  %15 = load ptr, ptr %14, align 8
  %16 = icmp ne ptr %15, null
  br i1 %16, label %18, label %17

17:                                               ; preds = %2
  store ptr null, ptr %3, align 8
  store i32 1, ptr %7, align 4
  br label %78

18:                                               ; preds = %2
  %19 = load ptr, ptr %5, align 8
  %20 = getelementptr inbounds nuw %struct.field_info, ptr %19, i32 0, i32 2
  %21 = load i32, ptr %20, align 4
  %22 = load ptr, ptr %5, align 8
  %23 = getelementptr inbounds nuw %struct.field_info, ptr %22, i32 0, i32 8
  %24 = load ptr, ptr %23, align 8
  %25 = load ptr, ptr %5, align 8
  %26 = getelementptr inbounds nuw %struct.field_info, ptr %25, i32 0, i32 1
  %27 = load i32, ptr %26, align 8
  %28 = call i32 @tvb_captured_length_remaining(ptr noundef %24, i32 noundef %27)
  %29 = icmp sgt i32 %21, %28
  br i1 %29, label %30, label %32

30:                                               ; preds = %18
  %31 = call noalias ptr @g_strdup(ptr noundef @.str.82)
  store ptr %31, ptr %3, align 8
  store i32 1, ptr %7, align 4
  br label %78

32:                                               ; preds = %18
  %33 = load ptr, ptr %4, align 8
  %34 = load ptr, ptr %5, align 8
  %35 = call ptr @get_field_data(ptr noundef %33, ptr noundef %34)
  store ptr %35, ptr %6, align 8
  %36 = load ptr, ptr %6, align 8
  %37 = icmp ne ptr %36, null
  br i1 %37, label %38, label %77

38:                                               ; preds = %32
  call void @llvm.lifetime.start.p0(i64 4, ptr %8) #15
  call void @llvm.lifetime.start.p0(i64 8, ptr %9) #15
  call void @llvm.lifetime.start.p0(i64 8, ptr %10) #15
  call void @llvm.lifetime.start.p0(i64 4, ptr %11) #15
  call void @llvm.lifetime.start.p0(i64 4, ptr %12) #15
  store i32 2, ptr %12, align 4
  %39 = load ptr, ptr %5, align 8
  %40 = getelementptr inbounds nuw %struct.field_info, ptr %39, i32 0, i32 2
  %41 = load i32, ptr %40, align 4
  %42 = mul i32 2, %41
  store i32 %42, ptr %11, align 4
  %43 = load i32, ptr %11, align 4
  %44 = add i32 %43, 1
  %45 = sext i32 %44 to i64
  %46 = mul i64 1, %45
  %47 = call noalias ptr @g_malloc(i64 noundef %46) #18
  store ptr %47, ptr %9, align 8
  %48 = load ptr, ptr %9, align 8
  %49 = load i32, ptr %11, align 4
  %50 = sext i32 %49 to i64
  %51 = getelementptr i8, ptr %48, i64 %50
  store i8 0, ptr %51, align 1
  %52 = load ptr, ptr %9, align 8
  store ptr %52, ptr %10, align 8
  store i32 0, ptr %8, align 4
  br label %53

53:                                               ; preds = %72, %38
  %54 = load i32, ptr %8, align 4
  %55 = load ptr, ptr %5, align 8
  %56 = getelementptr inbounds nuw %struct.field_info, ptr %55, i32 0, i32 2
  %57 = load i32, ptr %56, align 4
  %58 = icmp slt i32 %54, %57
  br i1 %58, label %59, label %75

59:                                               ; preds = %53
  %60 = load ptr, ptr %10, align 8
  %61 = load ptr, ptr %10, align 8
  %62 = call i64 @llvm.objectsize.i64.p0(ptr %61, i1 false, i1 true, i1 true)
  %63 = load ptr, ptr %6, align 8
  %64 = load i32, ptr %8, align 4
  %65 = sext i32 %64 to i64
  %66 = getelementptr i8, ptr %63, i64 %65
  %67 = load i8, ptr %66, align 1
  %68 = zext i8 %67 to i32
  %69 = call i32 (ptr, i64, i32, i64, ptr, ...) @__snprintf_chk(ptr noundef %60, i64 noundef 3, i32 noundef 2, i64 noundef %62, ptr noundef @.str.113, i32 noundef %68)
  %70 = load ptr, ptr %10, align 8
  %71 = getelementptr i8, ptr %70, i64 2
  store ptr %71, ptr %10, align 8
  br label %72

72:                                               ; preds = %59
  %73 = load i32, ptr %8, align 4
  %74 = add i32 %73, 1
  store i32 %74, ptr %8, align 4
  br label %53, !llvm.loop !38

75:                                               ; preds = %53
  %76 = load ptr, ptr %9, align 8
  store ptr %76, ptr %3, align 8
  store i32 1, ptr %7, align 4
  call void @llvm.lifetime.end.p0(i64 4, ptr %12) #15
  call void @llvm.lifetime.end.p0(i64 4, ptr %11) #15
  call void @llvm.lifetime.end.p0(i64 8, ptr %10) #15
  call void @llvm.lifetime.end.p0(i64 8, ptr %9) #15
  call void @llvm.lifetime.end.p0(i64 4, ptr %8) #15
  br label %78

77:                                               ; preds = %32
  store ptr null, ptr %3, align 8
  store i32 1, ptr %7, align 4
  br label %78

78:                                               ; preds = %77, %75, %30, %17
  call void @llvm.lifetime.end.p0(i64 8, ptr %6) #15
  %79 = load ptr, ptr %3, align 8
  ret ptr %79
}