; Function Attrs: null_pointer_is_valid sspstrong uwtable
define internal fastcc ptr @get_field_hex_value(ptr noundef readonly captures(address_is_null) %0, ptr noundef readonly captures(none) %1) unnamed_addr #0 {
  %3 = getelementptr inbounds nuw i8, ptr %1, i64 40
  %4 = load ptr, ptr %3, align 8
  %.not = icmp eq ptr %4, null
  br i1 %.not, label %get_field_data.exit.thread, label %5

5:                                                ; preds = %2
  %6 = getelementptr inbounds nuw i8, ptr %1, i64 12
  %7 = load i32, ptr %6, align 4
  %8 = getelementptr inbounds nuw i8, ptr %1, i64 8
  %9 = load i32, ptr %8, align 8
  %10 = tail call i32 @tvb_captured_length_remaining(ptr noundef nonnull %4, i32 noundef %9)
  %11 = icmp sgt i32 %7, %10
  br i1 %11, label %12, label %14

12:                                               ; preds = %5
  %13 = tail call noalias ptr @g_strdup(ptr noundef nonnull @.str.82)
  br label %get_field_data.exit.thread

14:                                               ; preds = %5
  %.not22.i = icmp eq ptr %0, null
  br i1 %.not22.i, label %get_field_data.exit.thread, label %.lr.ph.i

.lr.ph.i:                                         ; preds = %14, %23
  %.01723.i = phi ptr [ %25, %23 ], [ %0, %14 ]
  %15 = load ptr, ptr %.01723.i, align 8
  %16 = tail call ptr @get_data_source_tvb(ptr noundef %15)
  %17 = load ptr, ptr %3, align 8
  %18 = icmp eq ptr %17, %16
  br i1 %18, label %19, label %23

19:                                               ; preds = %.lr.ph.i
  %20 = load i32, ptr %8, align 8
  %21 = tail call i32 @tvb_captured_length_remaining(ptr noundef %16, i32 noundef %20)
  %22 = icmp slt i32 %21, 0
  br i1 %22, label %get_field_data.exit.thread, label %get_field_data.exit

23:                                               ; preds = %.lr.ph.i
  %24 = getelementptr inbounds nuw i8, ptr %.01723.i, i64 8
  %25 = load ptr, ptr %24, align 8
  %.not.i = icmp eq ptr %25, null
  br i1 %.not.i, label %get_field_data.exit.thread, label %.lr.ph.i, !llvm.loop !8

get_field_data.exit:                              ; preds = %19
  %26 = load i32, ptr %6, align 4
  %spec.select.i = tail call i32 @llvm.smin.i32(i32 %26, i32 %21)
  %27 = load i32, ptr %8, align 8
  %28 = tail call ptr @tvb_get_ptr(ptr noundef %16, i32 noundef %27, i32 noundef %spec.select.i)
  %.not25 = icmp eq ptr %28, null
  br i1 %.not25, label %get_field_data.exit.thread, label %29

29:                                               ; preds = %get_field_data.exit
  %30 = load i32, ptr %6, align 4
  %31 = shl i32 %30, 1
  %32 = or disjoint i32 %31, 1
  %33 = sext i32 %32 to i64
  %34 = tail call noalias ptr @g_malloc(i64 noundef %33) #26
  %35 = sext i32 %31 to i64
  %36 = getelementptr i8, ptr %34, i64 %35
  store i8 0, ptr %36, align 1
  %37 = load i32, ptr %6, align 4
  %38 = icmp sgt i32 %37, 0
  br i1 %38, label %.lr.ph, label %get_field_data.exit.thread

.lr.ph:                                           ; preds = %29, %.lr.ph
  %indvars.iv = phi i64 [ %indvars.iv.next, %.lr.ph ], [ 0, %29 ]
  %.02131 = phi ptr [ %47, %.lr.ph ], [ %34, %29 ]
  %39 = phi i64 [ %46, %.lr.ph ], [ 0, %29 ]
  %40 = tail call i64 @llvm.usub.sat.i64(i64 %33, i64 %39)
  %41 = icmp ne i64 %40, -1
  tail call void @llvm.assume(i1 %41)
  %42 = getelementptr i8, ptr %28, i64 %indvars.iv
  %43 = load i8, ptr %42, align 1
  %44 = zext i8 %43 to i32
  %45 = tail call i32 (ptr, i64, i32, i64, ptr, ...) @__snprintf_chk(ptr noundef %.02131, i64 noundef 3, i32 noundef 2, i64 noundef %40, ptr noundef nonnull @.str.113, i32 noundef %44)
  %46 = add nuw nsw i64 %39, 2
  %47 = getelementptr i8, ptr %.02131, i64 2
  %indvars.iv.next = add nuw nsw i64 %indvars.iv, 1
  %48 = load i32, ptr %6, align 4
  %49 = sext i32 %48 to i64
  %50 = icmp slt i64 %indvars.iv.next, %49
  br i1 %50, label %.lr.ph, label %get_field_data.exit.thread, !llvm.loop !43

get_field_data.exit.thread:                       ; preds = %23, %.lr.ph, %29, %14, %19, %get_field_data.exit, %2, %12
  %.0 = phi ptr [ %13, %12 ], [ null, %2 ], [ null, %get_field_data.exit ], [ null, %19 ], [ null, %14 ], [ %34, %29 ], [ %34, %.lr.ph ], [ null, %23 ]
  ret ptr %.0
}